target datalayout = "e-m:e-p270:32:32-p271:32:32-p272:64:64-i64:64-i128:128-f80:128-n8:16:32:64-S128"
target triple = "x86_64-pc-linux-gnu"

%struct.ScratchBuf = type { [65536 x i8], i32 }
%struct.Float = type { double, i32 }

@err_invalid_float_width = internal global ptr @.str.1, align 8
@err_float_out_of_range = internal global ptr @.str.2, align 8
@scratch_buffer = external global %struct.ScratchBuf, align 4
@err_float_format_invalid = internal global ptr @.str.3, align 8
@.str = private unnamed_addr constant [3 x i8] c"0x\00", align 1

; Function Attrs: nounwind uwtable
define internal zeroext i1 @char_is_hex(i8 noundef signext %0) #0 {
  %2 = alloca i8, align 1
  store i8 %0, ptr %2, align 1
  %3 = load i8, ptr %2, align 1
  %4 = zext i8 %3 to i64
  %5 = getelementptr inbounds [256 x i8], ptr @hex_conv, i64 0, i64 %4
  %6 = load i8, ptr %5, align 1
  %7 = sext i8 %6 to i32
  %8 = icmp ne i32 %7, 0
  ret i1 %8
}

; Function Attrs: nounwind uwtable
define dso_local { double, i32 } @float_from_hex(ptr noundef %0, ptr noundef %1) #0 {
  %3 = alloca %struct.Float, align 8
  %4 = alloca ptr, align 8
  %5 = alloca ptr, align 8
  %6 = alloca ptr, align 8
  %7 = alloca i8, align 1
  %8 = alloca i32, align 4
  %9 = alloca i32, align 4
  %10 = alloca ptr, align 8
  %11 = alloca ptr, align 8
  %12 = alloca double, align 8
  store ptr %0, ptr %4, align 8
  store ptr %1, ptr %5, align 8
  %13 = load ptr, ptr %4, align 8
  %14 = getelementptr inbounds i8, ptr %13, i64 2
  store ptr %14, ptr %6, align 8
  call void @scratch_buffer_clear()
  call void @scratch_buffer_append(ptr noundef @.str)
  br label %15

15:                                               ; preds = %37, %36, %2
  %16 = load ptr, ptr %6, align 8
  %17 = getelementptr inbounds i8, ptr %16, i32 1
  store ptr %17, ptr %6, align 8
  %18 = load i8, ptr %16, align 1
  store i8 %18, ptr %7, align 1
  %19 = sext i8 %18 to i32
  %20 = icmp ne i32 %19, 0
  br i1 %20, label %21, label %30

21:                                               ; preds = %15
  %22 = load i8, ptr %7, align 1
  %23 = sext i8 %22 to i32
  %24 = icmp eq i32 %23, 95
  br i1 %24, label %28, label %25

25:                                               ; preds = %21
  %26 = load i8, ptr %7, align 1
  %27 = call zeroext i1 @char_is_hex(i8 noundef signext %26)
  br label %28

28:                                               ; preds = %25, %21
  %29 = phi i1 [ true, %21 ], [ %27, %25 ]
  br label %30

30:                                               ; preds = %28, %15
  %31 = phi i1 [ false, %15 ], [ %29, %28 ]
  br i1 %31, label %32, label %39

32:                                               ; preds = %30
  %33 = load i8, ptr %7, align 1
  %34 = sext i8 %33 to i32
  %35 = icmp eq i32 %34, 95
  br i1 %35, label %36, label %37

36:                                               ; preds = %32
  br label %15, !llvm.loop !12

37:                                               ; preds = %32
  %38 = load i8, ptr %7, align 1
  call void @scratch_buffer_append_char(i8 noundef signext %38)
  br label %15, !llvm.loop !12

39:                                               ; preds = %30
  %40 = load i8, ptr %7, align 1
  %41 = sext i8 %40 to i32
  %42 = icmp eq i32 %41, 46
  br i1 %42, label %43, label %70

43:                                               ; preds = %39
  %44 = load i8, ptr %7, align 1
  call void @scratch_buffer_append_char(i8 noundef signext %44)
  br label %45

45:                                               ; preds = %67, %66, %43
  %46 = load ptr, ptr %6, align 8
  %47 = getelementptr inbounds i8, ptr %46, i32 1
  store ptr %47, ptr %6, align 8
  %48 = load i8, ptr %46, align 1
  store i8 %48, ptr %7, align 1
  %49 = sext i8 %48 to i32
  %50 = icmp ne i32 %49, 0
  br i1 %50, label %51, label %60

51:                                               ; preds = %45
  %52 = load i8, ptr %7, align 1
  %53 = sext i8 %52 to i32
  %54 = icmp eq i32 %53, 95
  br i1 %54, label %58, label %55

55:                                               ; preds = %51
  %56 = load i8, ptr %7, align 1
  %57 = call zeroext i1 @char_is_hex(i8 noundef signext %56)
  br label %58

58:                                               ; preds = %55, %51
  %59 = phi i1 [ true, %51 ], [ %57, %55 ]
  br label %60

60:                                               ; preds = %58, %45
  %61 = phi i1 [ false, %45 ], [ %59, %58 ]
  br i1 %61, label %62, label %69

62:                                               ; preds = %60
  %63 = load i8, ptr %7, align 1
  %64 = sext i8 %63 to i32
  %65 = icmp eq i32 %64, 95
  br i1 %65, label %66, label %67

66:                                               ; preds = %62
  br label %45, !llvm.loop !13

67:                                               ; preds = %62
  %68 = load i8, ptr %7, align 1
  call void @scratch_buffer_append_char(i8 noundef signext %68)
  br label %45, !llvm.loop !13

69:                                               ; preds = %60
  br label %70

70:                                               ; preds = %69, %39
  %71 = load i8, ptr %7, align 1
  %72 = sext i8 %71 to i32
  %73 = icmp eq i32 %72, 112
  br i1 %73, label %78, label %74

74:                                               ; preds = %70
  %75 = load i8, ptr %7, align 1
  %76 = sext i8 %75 to i32
  %77 = icmp eq i32 %76, 80
  br i1 %77, label %78, label %118

78:                                               ; preds = %74, %70
  %79 = load i8, ptr %7, align 1
  call void @scratch_buffer_append_char(i8 noundef signext %79)
  %80 = load ptr, ptr %6, align 8
  %81 = load i8, ptr %80, align 1
  %82 = sext i8 %81 to i32
  %83 = icmp eq i32 %82, 45
  br i1 %83, label %84, label %87

84:                                               ; preds = %78
  call void @scratch_buffer_append_char(i8 noundef signext 45)
  %85 = load ptr, ptr %6, align 8
  %86 = getelementptr inbounds i8, ptr %85, i32 1
  store ptr %86, ptr %6, align 8
  br label %96

87:                                               ; preds = %78
  %88 = load ptr, ptr %6, align 8
  %89 = load i8, ptr %88, align 1
  %90 = sext i8 %89 to i32
  %91 = icmp eq i32 %90, 43
  br i1 %91, label %92, label %95

92:                                               ; preds = %87
  %93 = load ptr, ptr %6, align 8
  %94 = getelementptr inbounds i8, ptr %93, i32 1
  store ptr %94, ptr %6, align 8
  br label %95

95:                                               ; preds = %92, %87
  br label %96

96:                                               ; preds = %95, %84
  br label %97

97:                                               ; preds = %115, %96
  %98 = load ptr, ptr %6, align 8
  %99 = getelementptr inbounds i8, ptr %98, i32 1
  store ptr %99, ptr %6, align 8
  %100 = load i8, ptr %98, align 1
  store i8 %100, ptr %7, align 1
  %101 = sext i8 %100 to i32
  %102 = icmp ne i32 %101, 0
  br i1 %102, label %103, label %113

103:                                              ; preds = %97
  %104 = load i8, ptr %7, align 1
  %105 = sext i8 %104 to i32
  %106 = icmp sge i32 %105, 48
  br i1 %106, label %107, label %111

107:                                              ; preds = %103
  %108 = load i8, ptr %7, align 1
  %109 = sext i8 %108 to i32
  %110 = icmp sle i32 %109, 57
  br label %111

111:                                              ; preds = %107, %103
  %112 = phi i1 [ false, %103 ], [ %110, %107 ]
  br label %113

113:                                              ; preds = %111, %97
  %114 = phi i1 [ false, %97 ], [ %112, %111 ]
  br i1 %114, label %115, label %117

115:                                              ; preds = %113
  %116 = load i8, ptr %7, align 1
  call void @scratch_buffer_append_char(i8 noundef signext %116)
  br label %97, !llvm.loop !14

117:                                              ; preds = %113
  br label %118

118:                                              ; preds = %117, %74
  store i32 16, ptr %8, align 4
  %119 = load i8, ptr %7, align 1
  %120 = sext i8 %119 to i32
  %121 = icmp eq i32 %120, 102
  br i1 %121, label %122, label %176

122:                                              ; preds = %118
  store i32 0, ptr %9, align 4
  br label %123

123:                                              ; preds = %153, %122
  %124 = load ptr, ptr %6, align 8
  %125 = getelementptr inbounds i8, ptr %124, i32 1
  store ptr %125, ptr %6, align 8
  %126 = load i8, ptr %124, align 1
  store i8 %126, ptr %7, align 1
  %127 = sext i8 %126 to i32
  %128 = icmp ne i32 %127, 0
  br i1 %128, label %129, label %139

129:                                              ; preds = %123
  %130 = load i8, ptr %7, align 1
  %131 = sext i8 %130 to i32
  %132 = icmp sge i32 %131, 48
  br i1 %132, label %133, label %137

133:                                              ; preds = %129
  %134 = load i8, ptr %7, align 1
  %135 = sext i8 %134 to i32
  %136 = icmp sle i32 %135, 57
  br label %137

137:                                              ; preds = %133, %129
  %138 = phi i1 [ false, %129 ], [ %136, %133 ]
  br label %139

139:                                              ; preds = %137, %123
  %140 = phi i1 [ false, %123 ], [ %138, %137 ]
  br i1 %140, label %141, label %160

141:                                              ; preds = %139
  %142 = load i32, ptr %9, align 4
  %143 = icmp sgt i32 %142, 100
  br i1 %143, label %144, label %153

144:                                              ; preds = %141
  %145 = load ptr, ptr %5, align 8
  %146 = icmp ne ptr %145, null
  br i1 %146, label %147, label %150

147:                                              ; preds = %144
  %148 = load ptr, ptr @err_invalid_float_width, align 8
  %149 = load ptr, ptr %5, align 8
  store ptr %148, ptr %149, align 8
  br label %150

150:                                              ; preds = %147, %144
  %151 = getelementptr inbounds %struct.Float, ptr %3, i32 0, i32 0
  store double 0.000000e+00, ptr %151, align 8
  %152 = getelementptr inbounds %struct.Float, ptr %3, i32 0, i32 1
  store i32 0, ptr %152, align 8
  br label %219

153:                                              ; preds = %141
  %154 = load i32, ptr %9, align 4
  %155 = mul nsw i32 %154, 10
  %156 = load i8, ptr %7, align 1
  %157 = sext i8 %156 to i32
  %158 = add nsw i32 %155, %157
  %159 = sub nsw i32 %158, 48
  store i32 %159, ptr %9, align 4
  br label %123, !llvm.loop !15

160:                                              ; preds = %139
  %161 = load i32, ptr %9, align 4
  switch i32 %161, label %166 [
    i32 0, label %162
    i32 32, label %162
    i32 16, label %163
    i32 64, label %164
    i32 128, label %165
  ]

162:                                              ; preds = %160, %160
  store i32 15, ptr %8, align 4
  br label %175

163:                                              ; preds = %160
  store i32 13, ptr %8, align 4
  br label %175

164:                                              ; preds = %160
  store i32 16, ptr %8, align 4
  br label %175

165:                                              ; preds = %160
  store i32 17, ptr %8, align 4
  br label %175

166:                                              ; preds = %160
  %167 = load ptr, ptr %5, align 8
  %168 = icmp ne ptr %167, null
  br i1 %168, label %169, label %172

169:                                              ; preds = %166
  %170 = load ptr, ptr @err_invalid_float_width, align 8
  %171 = load ptr, ptr %5, align 8
  store ptr %170, ptr %171, align 8
  br label %172

172:                                              ; preds = %169, %166
  %173 = getelementptr inbounds %struct.Float, ptr %3, i32 0, i32 0
  store double 0.000000e+00, ptr %173, align 8
  %174 = getelementptr inbounds %struct.Float, ptr %3, i32 0, i32 1
  store i32 0, ptr %174, align 8
  br label %219

175:                                              ; preds = %165, %164, %163, %162
  br label %176

176:                                              ; preds = %175, %118
  %177 = call ptr @scratch_buffer_to_string()
  store ptr %177, ptr %10, align 8
  store ptr null, ptr %11, align 8
  %178 = call ptr @__errno_location() #5
  store i32 0, ptr %178, align 4
  %179 = load ptr, ptr %10, align 8
  %180 = call double @strtod(ptr noundef %179, ptr noundef %11) #6
  store double %180, ptr %12, align 8
  %181 = load double, ptr %12, align 8
  %182 = fcmp oeq double %181, 0x7FF0000000000000
  br i1 %182, label %183, label %196

183:                                              ; preds = %176
  %184 = call ptr @__errno_location() #5
  %185 = load i32, ptr %184, align 4
  %186 = icmp eq i32 %185, 34
  br i1 %186, label %187, label %196

187:                                              ; preds = %183
  %188 = load ptr, ptr %5, align 8
  %189 = icmp ne ptr %188, null
  br i1 %189, label %190, label %193

190:                                              ; preds = %187
  %191 = load ptr, ptr @err_float_out_of_range, align 8
  %192 = load ptr, ptr %5, align 8
  store ptr %191, ptr %192, align 8
  br label %193

193:                                              ; preds = %190, %187
  %194 = getelementptr inbounds %struct.Float, ptr %3, i32 0, i32 0
  store double 0.000000e+00, ptr %194, align 8
  %195 = getelementptr inbounds %struct.Float, ptr %3, i32 0, i32 1
  store i32 0, ptr %195, align 8
  br label %219

196:                                              ; preds = %183, %176
  %197 = load double, ptr %12, align 8
  %198 = fcmp oeq double %197, 0.000000e+00
  br i1 %198, label %199, label %214

199:                                              ; preds = %196
  %200 = load ptr, ptr %11, align 8
  %201 = load i32, ptr getelementptr inbounds (%struct.ScratchBuf, ptr @scratch_buffer, i32 0, i32 1), align 4
  %202 = zext i32 %201 to i64
  %203 = getelementptr inbounds i8, ptr @scratch_buffer, i64 %202
  %204 = icmp ne ptr %200, %203
  br i1 %204, label %205, label %214

205:                                              ; preds = %199
  %206 = load ptr, ptr %5, align 8
  %207 = icmp ne ptr %206, null
  br i1 %207, label %208, label %211

208:                                              ; preds = %205
  %209 = load ptr, ptr @err_float_format_invalid, align 8
  %210 = load ptr, ptr %5, align 8
  store ptr %209, ptr %210, align 8
  br label %211

211:                                              ; preds = %208, %205
  %212 = getelementptr inbounds %struct.Float, ptr %3, i32 0, i32 0
  store double 0.000000e+00, ptr %212, align 8
  %213 = getelementptr inbounds %struct.Float, ptr %3, i32 0, i32 1
  store i32 0, ptr %213, align 8
  br label %219

214:                                              ; preds = %199, %196
  %215 = getelementptr inbounds %struct.Float, ptr %3, i32 0, i32 0
  %216 = load double, ptr %12, align 8
  store double %216, ptr %215, align 8
  %217 = getelementptr inbounds %struct.Float, ptr %3, i32 0, i32 1
  %218 = load i32, ptr %8, align 4
  store i32 %218, ptr %217, align 8
  br label %219

219:                                              ; preds = %214, %211, %193, %172, %150
  %220 = load { double, i32 }, ptr %3, align 8
  ret { double, i32 } %220
}