; Function Attrs: nounwind uwtable
define dso_local { double, i32 } @float_from_hex(ptr nocapture noundef readonly %0, ptr noundef writeonly %1) local_unnamed_addr #1 {
  %3 = alloca ptr, align 8
  %4 = getelementptr inbounds i8, ptr %0, i64 2
  tail call void @scratch_buffer_clear() #6
  tail call void @scratch_buffer_append(ptr noundef nonnull @.str) #6
  br label %.critedge77

.critedge77:                                      ; preds = %.critedge77.backedge, %2
  %.058 = phi ptr [ %4, %2 ], [ %5, %.critedge77.backedge ]
  %5 = getelementptr inbounds i8, ptr %.058, i64 1
  %6 = load i8, ptr %.058, align 1
  switch i8 %6, label %7 [
    i8 0, label %.critedge10.thread
    i8 95, label %.critedge77.backedge
  ]

7:                                                ; preds = %.critedge77
  %8 = zext i8 %6 to i64
  %9 = getelementptr inbounds [256 x i8], ptr @hex_conv, i64 0, i64 %8
  %10 = load i8, ptr %9, align 1
  %.not = icmp eq i8 %10, 0
  br i1 %.not, label %.critedge, label %.critedge2

.critedge2:                                       ; preds = %7
  tail call void @scratch_buffer_append_char(i8 noundef signext %6) #6
  br label %.critedge77.backedge

.critedge77.backedge:                             ; preds = %.critedge2, %.critedge77
  br label %.critedge77, !llvm.loop !12

.critedge:                                        ; preds = %7
  %11 = icmp eq i8 %6, 46
  br i1 %11, label %.critedge78.sink.split, label %.critedge4

.critedge78.sink.split:                           ; preds = %.critedge, %14
  %.sink = phi i8 [ %13, %14 ], [ 46, %.critedge ]
  %.159.ph = phi ptr [ %12, %14 ], [ %5, %.critedge ]
  tail call void @scratch_buffer_append_char(i8 noundef signext %.sink) #6
  br label %.critedge78

.critedge78:                                      ; preds = %.critedge78.sink.split, %.critedge78
  %.159 = phi ptr [ %12, %.critedge78 ], [ %.159.ph, %.critedge78.sink.split ]
  %12 = getelementptr inbounds i8, ptr %.159, i64 1
  %13 = load i8, ptr %.159, align 1
  switch i8 %13, label %14 [
    i8 0, label %.critedge10.thread
    i8 95, label %.critedge78
  ], !llvm.loop !13

14:                                               ; preds = %.critedge78
  %15 = zext i8 %13 to i64
  %16 = getelementptr inbounds [256 x i8], ptr @hex_conv, i64 0, i64 %15
  %17 = load i8, ptr %16, align 1
  %.not88 = icmp eq i8 %17, 0
  br i1 %.not88, label %.critedge4, label %.critedge78.sink.split, !llvm.loop !13

.critedge4:                                       ; preds = %14, %.critedge
  %.2 = phi ptr [ %5, %.critedge ], [ %12, %14 ]
  %.057 = phi i8 [ %6, %.critedge ], [ %13, %14 ]
  %18 = and i8 %.057, -33
  %or.cond = icmp eq i8 %18, 80
  br i1 %or.cond, label %19, label %.critedge10

19:                                               ; preds = %.critedge4
  tail call void @scratch_buffer_append_char(i8 noundef signext %.057) #6
  %20 = load i8, ptr %.2, align 1
  switch i8 %20, label %25 [
    i8 45, label %21
    i8 43, label %23
  ]

21:                                               ; preds = %19
  tail call void @scratch_buffer_append_char(i8 noundef signext 45) #6
  %22 = getelementptr inbounds i8, ptr %.2, i64 1
  br label %25

23:                                               ; preds = %19
  %24 = getelementptr inbounds i8, ptr %.2, i64 1
  br label %25

25:                                               ; preds = %19, %23, %21
  %.3 = phi ptr [ %22, %21 ], [ %24, %23 ], [ %.2, %19 ]
  %26 = getelementptr inbounds i8, ptr %.3, i64 1
  %27 = load i8, ptr %.3, align 1
  %28 = add i8 %27, -48
  %29 = icmp ult i8 %28, 10
  br i1 %29, label %.lr.ph, label %.critedge10

.lr.ph:                                           ; preds = %25, %.lr.ph
  %30 = phi i8 [ %33, %.lr.ph ], [ %27, %25 ]
  %31 = phi ptr [ %32, %.lr.ph ], [ %26, %25 ]
  tail call void @scratch_buffer_append_char(i8 noundef signext %30) #6
  %32 = getelementptr inbounds i8, ptr %31, i64 1
  %33 = load i8, ptr %31, align 1
  %34 = add i8 %33, -48
  %35 = icmp ult i8 %34, 10
  br i1 %35, label %.lr.ph, label %.critedge10, !llvm.loop !14

.critedge10:                                      ; preds = %.lr.ph, %25, %.critedge4
  %.5 = phi ptr [ %.2, %.critedge4 ], [ %26, %25 ], [ %32, %.lr.ph ]
  %.1 = phi i8 [ %.057, %.critedge4 ], [ %27, %25 ], [ %33, %.lr.ph ]
  %36 = icmp eq i8 %.1, 102
  br i1 %36, label %.preheader, label %.critedge10.thread

.preheader:                                       ; preds = %.critedge10
  %37 = load i8, ptr %.5, align 1
  %38 = add i8 %37, -48
  %39 = icmp ult i8 %38, 10
  br i1 %39, label %.lr.ph102, label %.critedge12

.lr.ph102:                                        ; preds = %.preheader, %42
  %.in = phi i8 [ %48, %42 ], [ %37, %.preheader ]
  %.pn = phi ptr [ %43, %42 ], [ %.5, %.preheader ]
  %.0101 = phi i32 [ %47, %42 ], [ 0, %.preheader ]
  %40 = icmp sgt i32 %.0101, 100
  br i1 %40, label %41, label %42

41:                                               ; preds = %.lr.ph102
  %.not76 = icmp eq ptr %1, null
  br i1 %.not76, label %71, label %.sink.split

42:                                               ; preds = %.lr.ph102
  %43 = getelementptr inbounds i8, ptr %.pn, i64 1
  %44 = zext nneg i8 %.in to i32
  %45 = mul nsw i32 %.0101, 10
  %46 = add i32 %45, -48
  %47 = add i32 %46, %44
  %48 = load i8, ptr %43, align 1
  %49 = add i8 %48, -48
  %50 = icmp ult i8 %49, 10
  br i1 %50, label %.lr.ph102, label %.critedge12, !llvm.loop !15

.critedge12:                                      ; preds = %42, %.preheader
  %.0.lcssa = phi i32 [ 0, %.preheader ], [ %47, %42 ]
  %51 = tail call i32 @llvm.fshl.i32(i32 %.0.lcssa, i32 %.0.lcssa, i32 28)
  %52 = icmp ult i32 %51, 9
  br i1 %52, label %switch.hole_check, label %53

53:                                               ; preds = %switch.hole_check, %.critedge12
  %.not75 = icmp eq ptr %1, null
  br i1 %.not75, label %71, label %.sink.split

switch.hole_check:                                ; preds = %.critedge12
  %switch.maskindex = trunc nuw i32 %51 to i16
  %switch.shifted = lshr i16 279, %switch.maskindex
  %switch.lobit = trunc i16 %switch.shifted to i1
  br i1 %switch.lobit, label %switch.lookup, label %53

switch.lookup:                                    ; preds = %switch.hole_check
  %54 = zext nneg i32 %51 to i64
  %switch.gep = getelementptr inbounds [9 x i32], ptr @switch.table.float_from_hex, i64 0, i64 %54
  %switch.load = load i32, ptr %switch.gep, align 4
  br label %.critedge10.thread

.critedge10.thread:                               ; preds = %.critedge77, %.critedge78, %switch.lookup, %.critedge10
  %.056 = phi i32 [ 16, %.critedge10 ], [ %switch.load, %switch.lookup ], [ 16, %.critedge78 ], [ 16, %.critedge77 ]
  %55 = tail call ptr @scratch_buffer_to_string() #6
  store ptr null, ptr %3, align 8
  %56 = tail call ptr @__errno_location() #7
  store i32 0, ptr %56, align 4
  %57 = call double @strtod(ptr noundef %55, ptr noundef nonnull %3) #6
  %58 = fcmp oeq double %57, 0x7FF0000000000000
  br i1 %58, label %59, label %63

59:                                               ; preds = %.critedge10.thread
  %60 = load i32, ptr %56, align 4
  %61 = icmp eq i32 %60, 34
  br i1 %61, label %62, label %63

62:                                               ; preds = %59
  %.not74 = icmp eq ptr %1, null
  br i1 %.not74, label %71, label %.sink.split

63:                                               ; preds = %59, %.critedge10.thread
  %64 = fcmp oeq double %57, 0.000000e+00
  br i1 %64, label %65, label %71

65:                                               ; preds = %63
  %66 = load ptr, ptr %3, align 8
  %67 = load i32, ptr getelementptr inbounds (%struct.ScratchBuf, ptr @scratch_buffer, i64 0, i32 1), align 4
  %68 = zext i32 %67 to i64
  %69 = getelementptr inbounds i8, ptr @scratch_buffer, i64 %68
  %.not72 = icmp eq ptr %66, %69
  br i1 %.not72, label %71, label %70

70:                                               ; preds = %65
  %.not73 = icmp eq ptr %1, null
  br i1 %.not73, label %71, label %.sink.split

.sink.split:                                      ; preds = %70, %62, %53, %41
  %.str.3.sink = phi ptr [ @.str.1, %41 ], [ @.str.1, %53 ], [ @.str.2, %62 ], [ @.str.3, %70 ]
  store ptr %.str.3.sink, ptr %1, align 8
  br label %71

71:                                               ; preds = %.sink.split, %63, %65, %70, %62, %53, %41
  %.sroa.0.0 = phi double [ 0.000000e+00, %41 ], [ 0.000000e+00, %53 ], [ 0.000000e+00, %62 ], [ 0.000000e+00, %70 ], [ %57, %65 ], [ %57, %63 ], [ 0.000000e+00, %.sink.split ]
  %.sroa.6.0 = phi i32 [ 0, %41 ], [ 0, %53 ], [ 0, %62 ], [ 0, %70 ], [ %.056, %65 ], [ %.056, %63 ], [ 0, %.sink.split ]
  %.fca.0.insert = insertvalue { double, i32 } poison, double %.sroa.0.0, 0
  %.fca.1.insert = insertvalue { double, i32 } %.fca.0.insert, i32 %.sroa.6.0, 1
  ret { double, i32 } %.fca.1.insert
}